target datalayout = "e-m:e-p270:32:32-p271:32:32-p272:64:64-i64:64-i128:128-f80:128-n8:16:32:64-S128"
target triple = "x86_64-pc-linux-gnu"

%struct.evsig_info = type { %struct.event, [2 x i32], i32, i32, [65 x ptr], ptr, i32 }
%struct.timeval = type { i64, i64 }
%struct.event = type { %struct.event_callback, %union.anon.0, i32, i16, i16, ptr, %union.anon.2, %struct.timeval }
%struct.event_callback = type { %struct.anon, i16, i8, i8, %union.anon, ptr }
%struct.anon = type { ptr, ptr }
%union.anon = type { ptr }
%union.anon.0 = type { %struct.anon.1 }
%struct.anon.1 = type { ptr, ptr }
%union.anon.2 = type { %struct.anon.3 }
%struct.anon.3 = type { %struct.anon.4, %struct.timeval }
%struct.anon.4 = type { ptr, ptr }

@event_debug_logging_mask_ = external global i32, align 4
@.str.1 = private unnamed_addr constant [47 x i8] c"%s: evsignal (%d) >= sh_old_max (%d), resizing\00", align 1
@__func__.evsig_ensure_saved_ = private unnamed_addr constant [20 x i8] c"evsig_ensure_saved_\00", align 1
@.str.2 = private unnamed_addr constant [8 x i8] c"realloc\00", align 1

; Function Attrs: nounwind uwtable
define hidden i32 @evsig_ensure_saved_(ptr noundef %0, i32 noundef %1) #0 {
  %3 = alloca i32, align 4
  %4 = alloca ptr, align 8
  %5 = alloca i32, align 4
  %6 = alloca ptr, align 8
  %7 = alloca i32, align 4
  %8 = alloca i32, align 4
  store ptr %0, ptr %4, align 8
  store i32 %1, ptr %5, align 4
  %9 = load i32, ptr %5, align 4
  %10 = load ptr, ptr %4, align 8
  %11 = getelementptr inbounds nuw %struct.evsig_info, ptr %10, i32 0, i32 6
  %12 = load i32, ptr %11, align 8
  %13 = icmp sge i32 %9, %12
  br i1 %13, label %14, label %62

14:                                               ; preds = %2
  call void @llvm.lifetime.start.p0(i64 8, ptr %6) #8
  call void @llvm.lifetime.start.p0(i64 4, ptr %7) #8
  %15 = load i32, ptr %5, align 4
  %16 = add nsw i32 %15, 1
  store i32 %16, ptr %7, align 4
  br label %17

17:                                               ; preds = %14
  %18 = load i32, ptr @event_debug_logging_mask_, align 4
  %19 = icmp ne i32 %18, 0
  br i1 %19, label %20, label %25

20:                                               ; preds = %17
  %21 = load i32, ptr %5, align 4
  %22 = load ptr, ptr %4, align 8
  %23 = getelementptr inbounds nuw %struct.evsig_info, ptr %22, i32 0, i32 6
  %24 = load i32, ptr %23, align 8
  call void (ptr, ...) @event_debugx_(ptr noundef @.str.1, ptr noundef @__func__.evsig_ensure_saved_, i32 noundef %21, i32 noundef %24)
  br label %25

25:                                               ; preds = %20, %17
  br label %26

26:                                               ; preds = %25
  br label %27

27:                                               ; preds = %26
  %28 = load ptr, ptr %4, align 8
  %29 = getelementptr inbounds nuw %struct.evsig_info, ptr %28, i32 0, i32 5
  %30 = load ptr, ptr %29, align 8
  %31 = load i32, ptr %7, align 4
  %32 = sext i32 %31 to i64
  %33 = mul i64 %32, 8
  %34 = call ptr @event_mm_realloc_(ptr noundef %30, i64 noundef %33)
  store ptr %34, ptr %6, align 8
  %35 = load ptr, ptr %6, align 8
  %36 = icmp eq ptr %35, null
  br i1 %36, label %37, label %38

37:                                               ; preds = %27
  call void (ptr, ...) @event_warn(ptr noundef @.str.2)
  store i32 -1, ptr %3, align 4
  store i32 1, ptr %8, align 4
  br label %59

38:                                               ; preds = %27
  %39 = load ptr, ptr %6, align 8
  %40 = load ptr, ptr %4, align 8
  %41 = getelementptr inbounds nuw %struct.evsig_info, ptr %40, i32 0, i32 6
  %42 = load i32, ptr %41, align 8
  %43 = sext i32 %42 to i64
  %44 = mul i64 %43, 8
  %45 = getelementptr inbounds nuw i8, ptr %39, i64 %44
  %46 = load i32, ptr %7, align 4
  %47 = load ptr, ptr %4, align 8
  %48 = getelementptr inbounds nuw %struct.evsig_info, ptr %47, i32 0, i32 6
  %49 = load i32, ptr %48, align 8
  %50 = sub nsw i32 %46, %49
  %51 = sext i32 %50 to i64
  %52 = mul i64 %51, 8
  call void @llvm.memset.p0.i64(ptr align 1 %45, i8 0, i64 %52, i1 false)
  %53 = load i32, ptr %7, align 4
  %54 = load ptr, ptr %4, align 8
  %55 = getelementptr inbounds nuw %struct.evsig_info, ptr %54, i32 0, i32 6
  store i32 %53, ptr %55, align 8
  %56 = load ptr, ptr %6, align 8
  %57 = load ptr, ptr %4, align 8
  %58 = getelementptr inbounds nuw %struct.evsig_info, ptr %57, i32 0, i32 5
  store ptr %56, ptr %58, align 8
  store i32 0, ptr %8, align 4
  br label %59

59:                                               ; preds = %38, %37
  call void @llvm.lifetime.end.p0(i64 4, ptr %7) #8
  call void @llvm.lifetime.end.p0(i64 8, ptr %6) #8
  %60 = load i32, ptr %8, align 4
  switch i32 %60, label %65 [
    i32 0, label %61
    i32 1, label %63
  ]

61:                                               ; preds = %59
  br label %62

62:                                               ; preds = %61, %2
  store i32 0, ptr %3, align 4
  br label %63

63:                                               ; preds = %62, %59
  %64 = load i32, ptr %3, align 4
  ret i32 %64

65:                                               ; preds = %59
  unreachable
}