; Function Attrs: nounwind uwtable
define hidden range(i32 -1, 1) i32 @evsig_ensure_saved_(ptr noundef captures(none) %0, i32 noundef %1) local_unnamed_addr #0 {
  %3 = getelementptr inbounds nuw i8, ptr %0, i64 664
  %4 = load i32, ptr %3, align 8
  %.not = icmp slt i32 %1, %4
  br i1 %.not, label %24, label %5

5:                                                ; preds = %2
  %6 = add nsw i32 %1, 1
  %7 = load i32, ptr @event_debug_logging_mask_, align 4
  %.not21 = icmp eq i32 %7, 0
  br i1 %.not21, label %9, label %8

8:                                                ; preds = %5
  tail call void (ptr, ...) @event_debugx_(ptr noundef nonnull @.str.1, ptr noundef nonnull @__func__.evsig_ensure_saved_, i32 noundef %1, i32 noundef %4) #8
  br label %9

9:                                                ; preds = %8, %5
  %10 = getelementptr inbounds nuw i8, ptr %0, i64 656
  %11 = load ptr, ptr %10, align 8
  %12 = sext i32 %6 to i64
  %13 = shl nsw i64 %12, 3
  %14 = tail call ptr @event_mm_realloc_(ptr noundef %11, i64 noundef %13) #8
  %15 = icmp eq ptr %14, null
  br i1 %15, label %23, label %.thread

.thread:                                          ; preds = %9
  %16 = load i32, ptr %3, align 8
  %17 = sext i32 %16 to i64
  %18 = shl nsw i64 %17, 3
  %19 = getelementptr inbounds nuw i8, ptr %14, i64 %18
  %20 = sub nsw i32 %6, %16
  %21 = sext i32 %20 to i64
  %22 = shl nsw i64 %21, 3
  tail call void @llvm.memset.p0.i64(ptr nonnull align 1 %19, i8 0, i64 %22, i1 false)
  store i32 %6, ptr %3, align 8
  store ptr %14, ptr %10, align 8
  br label %24

23:                                               ; preds = %9
  tail call void (ptr, ...) @event_warn(ptr noundef nonnull @.str.2) #8
  br label %24

24:                                               ; preds = %2, %.thread, %23
  %.1 = phi i32 [ -1, %23 ], [ 0, %.thread ], [ 0, %2 ]
  ret i32 %.1
}